; Function Attrs: mustprogress uwtable
define hidden void @_ZN19OpenColorIO_v2_5dev26CTFReaderGradingPrimaryElt3endEv(ptr noundef nonnull align 8 dereferenceable(392) %0) unnamed_addr #4 align 2 {
  %2 = getelementptr inbounds nuw i8, ptr %0, i64 376
  %3 = load ptr, ptr %2, align 8, !tbaa !535
  %4 = getelementptr inbounds nuw i8, ptr %0, i64 104
  %5 = getelementptr inbounds nuw i8, ptr %3, i64 176
  %6 = load ptr, ptr %5, align 8, !tbaa !538
  %7 = load ptr, ptr %6, align 8, !tbaa !9
  %8 = getelementptr inbounds nuw i8, ptr %7, i64 32
  %9 = load ptr, ptr %8, align 8
  tail call void %9(ptr noundef nonnull align 8 dereferenceable(392) %6, ptr noundef nonnull align 8 dereferenceable(272) %4)
  %10 = load ptr, ptr %2, align 8, !tbaa !535
  %11 = load ptr, ptr %10, align 8, !tbaa !9
  %12 = getelementptr inbounds nuw i8, ptr %11, i64 16
  %13 = load ptr, ptr %12, align 8
  tail call void %13(ptr noundef nonnull align 8 dereferenceable(192) %10)
  ret void
}